target datalayout = "e-m:e-p270:32:32-p271:32:32-p272:64:64-i64:64-i128:128-f80:128-n8:16:32:64-S128"
target triple = "x86_64-pc-linux-gnu"

%struct.redisServer = type { i32, i64, ptr, ptr, ptr, i32, i32, i32, i32, i32, ptr, ptr, ptr, ptr, ptr, i32, i32, i32, i32, i64, i32, i32, i32, i32, ptr, i32, i32, [41 x i8], i32, i64, i32, i32, i32, ptr, ptr, i32, i32, i64, ptr, ptr, ptr, ptr, [2 x i32], i32, i32, i32, i32, i32, i32, [16 x ptr], i32, ptr, ptr, i32, [8 x %struct.connListener], i32, %struct.connListener, ptr, ptr, ptr, ptr, ptr, ptr, ptr, ptr, ptr, ptr, i32, ptr, i32, ptr, [3 x %struct.pause_event], [256 x i8], ptr, i64, i32, i32, [128 x i32], i32, i32, i64, i32, i32, i32, i32, i32, i64, i64, i64, i64, i64, i64, i64, i64, i64, i64, double, i64, i64, i64, i64, i64, i64, i64, i64, i64, i64, i64, i64, i64, i64, i64, i64, i64, i64, i64, i64, i64, double, i64, i64, i64, i64, i64, ptr, i64, i64, i64, %struct.malloc_stats, i64, i64, i64, i64, i64, i64, i64, i64, i64, i64, i64, i64, double, [4 x i64], i64, i64, i64, i64, [128 x i64], [128 x i64], i64, i64, [7 x %struct.anon], i64, i64, i64, i64, i64, i64, [4 x %struct.durationStats], i32, i32, i32, i32, i32, i32, i32, i32, i32, i32, i32, i32, i64, i32, i32, i32, i32, i64, i64, i32, i32, i32, i32, i32, ptr, [3 x %struct.clientBufferLimitsConfig], i32, i32, i32, ptr, i32, i32, i32, i32, i32, i32, ptr, ptr, i32, i32, i64, i64, i64, i64, i64, i32, i32, ptr, i32, i32, i64, i64, i64, i64, i64, i32, i32, i64, i32, i32, i32, i32, i32, i32, i32, i32, ptr, i32, i64, i64, i64, i64, i32, ptr, i32, ptr, i32, i32, i32, i64, i64, i64, i64, i32, i32, i32, i32, i32, i32, ptr, i32, i32, ptr, i32, i32, i32, [2 x i32], i32, %struct.redisOpArray, i32, ptr, i32, ptr, i32, i32, i32, i32, i32, i32, i32, [41 x i8], [41 x i8], i64, i64, i64, i64, i32, i32, ptr, i64, i64, %struct.replDataBuf, i64, i64, i32, i32, i32, i32, i32, i32, i32, i32, i32, i64, ptr, i64, ptr, ptr, ptr, i32, i32, ptr, ptr, i32, i32, i32, i64, i64, i64, i64, ptr, ptr, i32, ptr, i64, i32, i32, i32, i64, i32, i32, i32, i32, ptr, i32, i32, [41 x i8], i64, i32, ptr, i32, i32, i64, i64, i32, i32, i32, i32, i32, i64, [3 x i32], i32, i32, i32, [10 x i32], ptr, ptr, i32, i64, ptr, ptr, i32, i32, i32, i32, i64, i64, i64, i64, i64, i64, i64, i64, i64, i64, i32, i32, i64, i64, i32, i64, i64, i64, i64, i64, ptr, ptr, i32, ptr, i32, i32, i32, i32, i64, i64, ptr, ptr, i32, i32, i32, i32, i32, ptr, ptr, ptr, i32, i32, i32, i32, i32, i32, i32, i64, i32, i32, i64, i32, i32, i32, i32, i32, i32, i32, i64, ptr, ptr, i64, ptr, i32, %struct.aclInfo, i32, i64, i32, i32, i32, %struct.redisTLSContextConfig, ptr, ptr, ptr, ptr, ptr, i64, i32, ptr, i32, i32, i32, i64, i32, ptr }
%struct.connListener = type { [16 x i32], i32, ptr, i32, i32, ptr, ptr }
%struct.pause_event = type { i32, i64 }
%struct.malloc_stats = type { i64, i64, i64, i64, i64, i64, i64, i64, i64, i64, i64 }
%struct.anon = type { i64, i64, [16 x i64], i32 }
%struct.durationStats = type { i64, i64, i64 }
%struct.clientBufferLimitsConfig = type { i64, i64, i64 }
%struct.redisOpArray = type { ptr, i32, i32 }
%struct.replDataBuf = type { ptr, i64, i64, i64, i64 }
%struct.aclInfo = type { i64, i64, i64, i64 }
%struct.redisTLSContextConfig = type { ptr, ptr, ptr, ptr, ptr, ptr, ptr, ptr, ptr, ptr, ptr, ptr, i32, i32, i32, i32 }
%struct.list = type { ptr, ptr, ptr, ptr, ptr, i64 }
%struct.listNode = type { ptr, ptr, ptr }

@server = external global %struct.redisServer, align 8

; Function Attrs: nounwind uwtable
define dso_local ptr @activeDefragStringOb(ptr noundef %0) #0 {
  %2 = alloca ptr, align 8
  store ptr %0, ptr %2, align 8, !tbaa !42
  %3 = load ptr, ptr %2, align 8, !tbaa !42
  %4 = call ptr @activeDefragStringObEx(ptr noundef %3, i32 noundef 1)
  ret ptr %4
}

; Function Attrs: nounwind uwtable
define dso_local ptr @activeDefragSds(ptr noundef %0) #0 {
  %2 = alloca ptr, align 8
  %3 = alloca ptr, align 8
  %4 = alloca ptr, align 8
  %5 = alloca ptr, align 8
  %6 = alloca i64, align 8
  %7 = alloca i32, align 4
  store ptr %0, ptr %3, align 8, !tbaa !41
  call void @llvm.lifetime.start.p0(i64 8, ptr %4) #10
  %8 = load ptr, ptr %3, align 8, !tbaa !41
  %9 = call ptr @sdsAllocPtr(ptr noundef %8)
  store ptr %9, ptr %4, align 8, !tbaa !5
  call void @llvm.lifetime.start.p0(i64 8, ptr %5) #10
  %10 = load ptr, ptr %4, align 8, !tbaa !5
  %11 = call ptr @activeDefragAlloc(ptr noundef %10)
  store ptr %11, ptr %5, align 8, !tbaa !5
  %12 = load ptr, ptr %5, align 8, !tbaa !5
  %13 = icmp ne ptr %12, null
  br i1 %13, label %14, label %24

14:                                               ; preds = %1
  call void @llvm.lifetime.start.p0(i64 8, ptr %6) #10
  %15 = load ptr, ptr %3, align 8, !tbaa !41
  %16 = load ptr, ptr %4, align 8, !tbaa !5
  %17 = ptrtoint ptr %15 to i64
  %18 = ptrtoint ptr %16 to i64
  %19 = sub i64 %17, %18
  store i64 %19, ptr %6, align 8, !tbaa !39
  %20 = load ptr, ptr %5, align 8, !tbaa !5
  %21 = load i64, ptr %6, align 8, !tbaa !39
  %22 = getelementptr inbounds nuw i8, ptr %20, i64 %21
  store ptr %22, ptr %3, align 8, !tbaa !41
  %23 = load ptr, ptr %3, align 8, !tbaa !41
  store ptr %23, ptr %2, align 8
  store i32 1, ptr %7, align 4
  call void @llvm.lifetime.end.p0(i64 8, ptr %6) #10
  br label %25

24:                                               ; preds = %1
  store ptr null, ptr %2, align 8
  store i32 1, ptr %7, align 4
  br label %25

25:                                               ; preds = %24, %14
  call void @llvm.lifetime.end.p0(i64 8, ptr %5) #10
  call void @llvm.lifetime.end.p0(i64 8, ptr %4) #10
  %26 = load ptr, ptr %2, align 8
  ret ptr %26
}

; Function Attrs: nounwind uwtable
define dso_local ptr @activeDefragAlloc(ptr noundef %0) #0 {
  %2 = alloca ptr, align 8
  %3 = alloca ptr, align 8
  %4 = alloca i64, align 8
  %5 = alloca ptr, align 8
  %6 = alloca i32, align 4
  store ptr %0, ptr %3, align 8, !tbaa !5
  call void @llvm.lifetime.start.p0(i64 8, ptr %4) #10
  call void @llvm.lifetime.start.p0(i64 8, ptr %5) #10
  %7 = load ptr, ptr %3, align 8, !tbaa !5
  %8 = call i32 @je_get_defrag_hint(ptr noundef %7)
  %9 = icmp ne i32 %8, 0
  br i1 %9, label %13, label %10

10:                                               ; preds = %1
  %11 = load i64, ptr getelementptr inbounds nuw (%struct.redisServer, ptr @server, i32 0, i32 107), align 8, !tbaa !9
  %12 = add nsw i64 %11, 1
  store i64 %12, ptr getelementptr inbounds nuw (%struct.redisServer, ptr @server, i32 0, i32 107), align 8, !tbaa !9
  store ptr null, ptr %2, align 8
  store i32 1, ptr %6, align 4
  br label %25

13:                                               ; preds = %1
  %14 = load ptr, ptr %3, align 8, !tbaa !5
  %15 = call i64 @je_malloc_usable_size(ptr noundef %14) #10
  store i64 %15, ptr %4, align 8, !tbaa !39
  %16 = load i64, ptr %4, align 8, !tbaa !39
  %17 = call noalias ptr @zmalloc_no_tcache(i64 noundef %16)
  store ptr %17, ptr %5, align 8, !tbaa !5
  %18 = load ptr, ptr %5, align 8, !tbaa !5
  %19 = load ptr, ptr %3, align 8, !tbaa !5
  %20 = load i64, ptr %4, align 8, !tbaa !39
  call void @llvm.memcpy.p0.p0.i64(ptr align 1 %18, ptr align 1 %19, i64 %20, i1 false)
  %21 = load ptr, ptr %3, align 8, !tbaa !5
  call void @zfree_no_tcache(ptr noundef %21)
  %22 = load i64, ptr getelementptr inbounds nuw (%struct.redisServer, ptr @server, i32 0, i32 106), align 8, !tbaa !40
  %23 = add nsw i64 %22, 1
  store i64 %23, ptr getelementptr inbounds nuw (%struct.redisServer, ptr @server, i32 0, i32 106), align 8, !tbaa !40
  %24 = load ptr, ptr %5, align 8, !tbaa !5
  store ptr %24, ptr %2, align 8
  store i32 1, ptr %6, align 4
  br label %25

25:                                               ; preds = %13, %10
  call void @llvm.lifetime.end.p0(i64 8, ptr %5) #10
  call void @llvm.lifetime.end.p0(i64 8, ptr %4) #10
  %26 = load ptr, ptr %2, align 8
  ret ptr %26
}

; Function Attrs: nounwind uwtable
define dso_local void @activeDefragList(ptr noundef %0, i32 noundef %1) #0 {
  %3 = alloca ptr, align 8
  %4 = alloca i32, align 4
  %5 = alloca ptr, align 8
  %6 = alloca ptr, align 8
  %7 = alloca ptr, align 8
  %8 = alloca ptr, align 8
  %9 = alloca ptr, align 8
  %10 = alloca ptr, align 8
  %11 = alloca ptr, align 8
  %12 = alloca ptr, align 8
  store ptr %0, ptr %3, align 8, !tbaa !87
  store i32 %1, ptr %4, align 4, !tbaa !44
  call void @llvm.lifetime.start.p0(i64 8, ptr %5) #10
  call void @llvm.lifetime.start.p0(i64 8, ptr %6) #10
  %13 = load ptr, ptr %3, align 8, !tbaa !87
  %14 = getelementptr inbounds nuw %struct.list, ptr %13, i32 0, i32 0
  %15 = load ptr, ptr %14, align 8, !tbaa !88
  store ptr %15, ptr %5, align 8, !tbaa !90
  br label %16

16:                                               ; preds = %103, %2
  %17 = load ptr, ptr %5, align 8, !tbaa !90
  %18 = icmp ne ptr %17, null
  br i1 %18, label %19, label %107

19:                                               ; preds = %16
  %20 = load ptr, ptr %5, align 8, !tbaa !90
  %21 = call ptr @activeDefragAlloc(ptr noundef %20)
  store ptr %21, ptr %6, align 8, !tbaa !90
  %22 = icmp ne ptr %21, null
  br i1 %22, label %23, label %55

23:                                               ; preds = %19
  %24 = load ptr, ptr %6, align 8, !tbaa !90
  %25 = getelementptr inbounds nuw %struct.listNode, ptr %24, i32 0, i32 0
  %26 = load ptr, ptr %25, align 8, !tbaa !91
  %27 = icmp ne ptr %26, null
  br i1 %27, label %28, label %34

28:                                               ; preds = %23
  %29 = load ptr, ptr %6, align 8, !tbaa !90
  %30 = load ptr, ptr %6, align 8, !tbaa !90
  %31 = getelementptr inbounds nuw %struct.listNode, ptr %30, i32 0, i32 0
  %32 = load ptr, ptr %31, align 8, !tbaa !91
  %33 = getelementptr inbounds nuw %struct.listNode, ptr %32, i32 0, i32 1
  store ptr %29, ptr %33, align 8, !tbaa !93
  br label %38

34:                                               ; preds = %23
  %35 = load ptr, ptr %6, align 8, !tbaa !90
  %36 = load ptr, ptr %3, align 8, !tbaa !87
  %37 = getelementptr inbounds nuw %struct.list, ptr %36, i32 0, i32 0
  store ptr %35, ptr %37, align 8, !tbaa !88
  br label %38

38:                                               ; preds = %34, %28
  %39 = load ptr, ptr %6, align 8, !tbaa !90
  %40 = getelementptr inbounds nuw %struct.listNode, ptr %39, i32 0, i32 1
  %41 = load ptr, ptr %40, align 8, !tbaa !93
  %42 = icmp ne ptr %41, null
  br i1 %42, label %43, label %49

43:                                               ; preds = %38
  %44 = load ptr, ptr %6, align 8, !tbaa !90
  %45 = load ptr, ptr %6, align 8, !tbaa !90
  %46 = getelementptr inbounds nuw %struct.listNode, ptr %45, i32 0, i32 1
  %47 = load ptr, ptr %46, align 8, !tbaa !93
  %48 = getelementptr inbounds nuw %struct.listNode, ptr %47, i32 0, i32 0
  store ptr %44, ptr %48, align 8, !tbaa !91
  br label %53

49:                                               ; preds = %38
  %50 = load ptr, ptr %6, align 8, !tbaa !90
  %51 = load ptr, ptr %3, align 8, !tbaa !87
  %52 = getelementptr inbounds nuw %struct.list, ptr %51, i32 0, i32 1
  store ptr %50, ptr %52, align 8, !tbaa !94
  br label %53

53:                                               ; preds = %49, %43
  %54 = load ptr, ptr %6, align 8, !tbaa !90
  store ptr %54, ptr %5, align 8, !tbaa !90
  br label %55

55:                                               ; preds = %53, %19
  %56 = load i32, ptr %4, align 4, !tbaa !44
  %57 = icmp eq i32 %56, 1
  br i1 %57, label %58, label %70

58:                                               ; preds = %55
  call void @llvm.lifetime.start.p0(i64 8, ptr %7) #10
  call void @llvm.lifetime.start.p0(i64 8, ptr %8) #10
  %59 = load ptr, ptr %5, align 8, !tbaa !90
  %60 = getelementptr inbounds nuw %struct.listNode, ptr %59, i32 0, i32 2
  %61 = load ptr, ptr %60, align 8, !tbaa !95
  store ptr %61, ptr %8, align 8, !tbaa !41
  %62 = load ptr, ptr %8, align 8, !tbaa !41
  %63 = call ptr @activeDefragSds(ptr noundef %62)
  store ptr %63, ptr %7, align 8, !tbaa !41
  %64 = icmp ne ptr %63, null
  br i1 %64, label %65, label %69

65:                                               ; preds = %58
  %66 = load ptr, ptr %7, align 8, !tbaa !41
  %67 = load ptr, ptr %5, align 8, !tbaa !90
  %68 = getelementptr inbounds nuw %struct.listNode, ptr %67, i32 0, i32 2
  store ptr %66, ptr %68, align 8, !tbaa !95
  br label %69

69:                                               ; preds = %65, %58
  call void @llvm.lifetime.end.p0(i64 8, ptr %8) #10
  call void @llvm.lifetime.end.p0(i64 8, ptr %7) #10
  br label %102

70:                                               ; preds = %55
  %71 = load i32, ptr %4, align 4, !tbaa !44
  %72 = icmp eq i32 %71, 2
  br i1 %72, label %73, label %85

73:                                               ; preds = %70
  call void @llvm.lifetime.start.p0(i64 8, ptr %9) #10
  call void @llvm.lifetime.start.p0(i64 8, ptr %10) #10
  %74 = load ptr, ptr %5, align 8, !tbaa !90
  %75 = getelementptr inbounds nuw %struct.listNode, ptr %74, i32 0, i32 2
  %76 = load ptr, ptr %75, align 8, !tbaa !95
  store ptr %76, ptr %10, align 8, !tbaa !42
  %77 = load ptr, ptr %10, align 8, !tbaa !42
  %78 = call ptr @activeDefragStringOb(ptr noundef %77)
  store ptr %78, ptr %9, align 8, !tbaa !42
  %79 = icmp ne ptr %78, null
  br i1 %79, label %80, label %84

80:                                               ; preds = %73
  %81 = load ptr, ptr %9, align 8, !tbaa !42
  %82 = load ptr, ptr %5, align 8, !tbaa !90
  %83 = getelementptr inbounds nuw %struct.listNode, ptr %82, i32 0, i32 2
  store ptr %81, ptr %83, align 8, !tbaa !95
  br label %84

84:                                               ; preds = %80, %73
  call void @llvm.lifetime.end.p0(i64 8, ptr %10) #10
  call void @llvm.lifetime.end.p0(i64 8, ptr %9) #10
  br label %101

85:                                               ; preds = %70
  %86 = load i32, ptr %4, align 4, !tbaa !44
  %87 = icmp eq i32 %86, 3
  br i1 %87, label %88, label %100

88:                                               ; preds = %85
  call void @llvm.lifetime.start.p0(i64 8, ptr %11) #10
  call void @llvm.lifetime.start.p0(i64 8, ptr %12) #10
  %89 = load ptr, ptr %5, align 8, !tbaa !90
  %90 = getelementptr inbounds nuw %struct.listNode, ptr %89, i32 0, i32 2
  %91 = load ptr, ptr %90, align 8, !tbaa !95
  store ptr %91, ptr %12, align 8, !tbaa !5
  %92 = load ptr, ptr %12, align 8, !tbaa !5
  %93 = call ptr @activeDefragAlloc(ptr noundef %92)
  store ptr %93, ptr %11, align 8, !tbaa !5
  %94 = icmp ne ptr %93, null
  br i1 %94, label %95, label %99

95:                                               ; preds = %88
  %96 = load ptr, ptr %11, align 8, !tbaa !5
  %97 = load ptr, ptr %5, align 8, !tbaa !90
  %98 = getelementptr inbounds nuw %struct.listNode, ptr %97, i32 0, i32 2
  store ptr %96, ptr %98, align 8, !tbaa !95
  br label %99

99:                                               ; preds = %95, %88
  call void @llvm.lifetime.end.p0(i64 8, ptr %12) #10
  call void @llvm.lifetime.end.p0(i64 8, ptr %11) #10
  br label %100

100:                                              ; preds = %99, %85
  br label %101

101:                                              ; preds = %100, %84
  br label %102

102:                                              ; preds = %101, %69
  br label %103

103:                                              ; preds = %102
  %104 = load ptr, ptr %5, align 8, !tbaa !90
  %105 = getelementptr inbounds nuw %struct.listNode, ptr %104, i32 0, i32 1
  %106 = load ptr, ptr %105, align 8, !tbaa !93
  store ptr %106, ptr %5, align 8, !tbaa !90
  br label %16, !llvm.loop !96

107:                                              ; preds = %16
  call void @llvm.lifetime.end.p0(i64 8, ptr %6) #10
  call void @llvm.lifetime.end.p0(i64 8, ptr %5) #10
  ret void
}