; Function Attrs: nounwind uwtable
define dso_local void @activeDefragList(ptr noundef captures(none) %0, i32 noundef %1) local_unnamed_addr #0 {
  %.052 = load ptr, ptr %0, align 8, !tbaa !74
  %.not53 = icmp eq ptr %.052, null
  br i1 %.not53, label %._crit_edge, label %.lr.ph

.lr.ph:                                           ; preds = %2
  %3 = getelementptr inbounds nuw i8, ptr %0, i64 8
  br label %4

4:                                                ; preds = %.lr.ph, %55
  %.054 = phi ptr [ %.052, %.lr.ph ], [ %.0, %55 ]
  %5 = tail call i32 @je_get_defrag_hint(ptr noundef nonnull %.054) #10
  %.not.i = icmp eq i32 %5, 0
  br i1 %.not.i, label %activeDefragAlloc.exit.thread, label %activeDefragAlloc.exit

activeDefragAlloc.exit.thread:                    ; preds = %4
  %6 = load i64, ptr getelementptr inbounds nuw (i8, ptr @server, i64 2592), align 8, !tbaa !5
  %7 = add nsw i64 %6, 1
  store i64 %7, ptr getelementptr inbounds nuw (i8, ptr @server, i64 2592), align 8, !tbaa !5
  br label %22

activeDefragAlloc.exit:                           ; preds = %4
  %8 = tail call i64 @je_malloc_usable_size(ptr noundef nonnull %.054) #10
  %9 = tail call noalias ptr @zmalloc_no_tcache(i64 noundef %8) #10
  tail call void @llvm.memcpy.p0.p0.i64(ptr align 1 %9, ptr nonnull align 1 %.054, i64 %8, i1 false)
  tail call void @zfree_no_tcache(ptr noundef nonnull %.054) #10
  %10 = load i64, ptr getelementptr inbounds nuw (i8, ptr @server, i64 2584), align 8, !tbaa !38
  %11 = add nsw i64 %10, 1
  store i64 %11, ptr getelementptr inbounds nuw (i8, ptr @server, i64 2584), align 8, !tbaa !38
  %.not36 = icmp eq ptr %9, null
  br i1 %.not36, label %22, label %12

12:                                               ; preds = %activeDefragAlloc.exit
  %13 = load ptr, ptr %9, align 8, !tbaa !75
  %.not37 = icmp eq ptr %13, null
  br i1 %.not37, label %16, label %14

14:                                               ; preds = %12
  %15 = getelementptr inbounds nuw i8, ptr %13, i64 8
  store ptr %9, ptr %15, align 8, !tbaa !77
  br label %17

16:                                               ; preds = %12
  store ptr %9, ptr %0, align 8, !tbaa !78
  br label %17

17:                                               ; preds = %16, %14
  %18 = getelementptr inbounds nuw i8, ptr %9, i64 8
  %19 = load ptr, ptr %18, align 8, !tbaa !77
  %.not38 = icmp eq ptr %19, null
  br i1 %.not38, label %21, label %20

20:                                               ; preds = %17
  store ptr %9, ptr %19, align 8, !tbaa !75
  br label %22

21:                                               ; preds = %17
  store ptr %9, ptr %3, align 8, !tbaa !80
  br label %22

22:                                               ; preds = %activeDefragAlloc.exit.thread, %20, %21, %activeDefragAlloc.exit
  %.1 = phi ptr [ %.054, %activeDefragAlloc.exit ], [ %9, %21 ], [ %9, %20 ], [ %.054, %activeDefragAlloc.exit.thread ]
  switch i32 %1, label %55 [
    i32 1, label %23
    i32 2, label %39
    i32 3, label %44
  ]

23:                                               ; preds = %22
  %24 = getelementptr inbounds nuw i8, ptr %.1, i64 16
  %25 = load ptr, ptr %24, align 8, !tbaa !81
  %26 = tail call ptr @sdsAllocPtr(ptr noundef %25) #10
  %27 = tail call i32 @je_get_defrag_hint(ptr noundef %26) #10
  %.not.i.i = icmp eq i32 %27, 0
  br i1 %.not.i.i, label %activeDefragSds.exit.thread, label %activeDefragSds.exit

activeDefragSds.exit.thread:                      ; preds = %23
  %28 = load i64, ptr getelementptr inbounds nuw (i8, ptr @server, i64 2592), align 8, !tbaa !5
  %29 = add nsw i64 %28, 1
  store i64 %29, ptr getelementptr inbounds nuw (i8, ptr @server, i64 2592), align 8, !tbaa !5
  br label %55

activeDefragSds.exit:                             ; preds = %23
  %30 = tail call i64 @je_malloc_usable_size(ptr noundef %26) #10
  %31 = tail call noalias ptr @zmalloc_no_tcache(i64 noundef %30) #10
  tail call void @llvm.memcpy.p0.p0.i64(ptr align 1 %31, ptr align 1 %26, i64 %30, i1 false)
  tail call void @zfree_no_tcache(ptr noundef %26) #10
  %32 = load i64, ptr getelementptr inbounds nuw (i8, ptr @server, i64 2584), align 8, !tbaa !38
  %33 = add nsw i64 %32, 1
  store i64 %33, ptr getelementptr inbounds nuw (i8, ptr @server, i64 2584), align 8, !tbaa !38
  %.not4151 = icmp eq ptr %31, null
  br i1 %.not4151, label %55, label %34

34:                                               ; preds = %activeDefragSds.exit
  %35 = ptrtoint ptr %25 to i64
  %36 = ptrtoint ptr %26 to i64
  %37 = sub i64 %35, %36
  %38 = getelementptr inbounds nuw i8, ptr %31, i64 %37
  store ptr %38, ptr %24, align 8, !tbaa !81
  br label %55

39:                                               ; preds = %22
  %40 = getelementptr inbounds nuw i8, ptr %.1, i64 16
  %41 = load ptr, ptr %40, align 8, !tbaa !81
  %42 = tail call ptr @activeDefragStringObEx(ptr noundef %41, i32 noundef 1)
  %.not40 = icmp eq ptr %42, null
  br i1 %.not40, label %55, label %43

43:                                               ; preds = %39
  store ptr %42, ptr %40, align 8, !tbaa !81
  br label %55

44:                                               ; preds = %22
  %45 = getelementptr inbounds nuw i8, ptr %.1, i64 16
  %46 = load ptr, ptr %45, align 8, !tbaa !81
  %47 = tail call i32 @je_get_defrag_hint(ptr noundef %46) #10
  %.not.i44 = icmp eq i32 %47, 0
  br i1 %.not.i44, label %activeDefragAlloc.exit46.thread, label %activeDefragAlloc.exit46

activeDefragAlloc.exit46.thread:                  ; preds = %44
  %48 = load i64, ptr getelementptr inbounds nuw (i8, ptr @server, i64 2592), align 8, !tbaa !5
  %49 = add nsw i64 %48, 1
  store i64 %49, ptr getelementptr inbounds nuw (i8, ptr @server, i64 2592), align 8, !tbaa !5
  br label %55

activeDefragAlloc.exit46:                         ; preds = %44
  %50 = tail call i64 @je_malloc_usable_size(ptr noundef %46) #10
  %51 = tail call noalias ptr @zmalloc_no_tcache(i64 noundef %50) #10
  tail call void @llvm.memcpy.p0.p0.i64(ptr align 1 %51, ptr align 1 %46, i64 %50, i1 false)
  tail call void @zfree_no_tcache(ptr noundef %46) #10
  %52 = load i64, ptr getelementptr inbounds nuw (i8, ptr @server, i64 2584), align 8, !tbaa !38
  %53 = add nsw i64 %52, 1
  store i64 %53, ptr getelementptr inbounds nuw (i8, ptr @server, i64 2584), align 8, !tbaa !38
  %.not39 = icmp eq ptr %51, null
  br i1 %.not39, label %55, label %54

54:                                               ; preds = %activeDefragAlloc.exit46
  store ptr %51, ptr %45, align 8, !tbaa !81
  br label %55

55:                                               ; preds = %activeDefragSds.exit.thread, %activeDefragAlloc.exit46.thread, %activeDefragAlloc.exit46, %54, %22, %39, %43, %activeDefragSds.exit, %34
  %56 = getelementptr inbounds nuw i8, ptr %.1, i64 8
  %.0 = load ptr, ptr %56, align 8, !tbaa !74
  %.not = icmp eq ptr %.0, null
  br i1 %.not, label %._crit_edge, label %4, !llvm.loop !82

._crit_edge:                                      ; preds = %55, %2
  ret void
}